

Microchip MPLAB XC8 Assembler V2.41 build 20230208172133 
                                                                                               Mon Aug 07 07:54:37 2023

Microchip MPLAB XC8 C Compiler v2.41 (Free license) build 20230208172133 Og1 
     1                           	processor	16F877A
     2                           	pagewidth 120
     3                           	opt	flic
     4                           	psect	idataBANK0,global,class=CODE,delta=2,noexec
     5                           	psect	cinit,global,class=CODE,merge=1,delta=2
     6                           	psect	bssBANK0,global,class=BANK0,space=1,delta=1,noexec
     7                           	psect	dataBANK0,global,class=BANK0,space=1,delta=1,noexec
     8                           	psect	inittext,global,class=CODE,delta=2
     9                           	psect	cstackCOMMON,global,class=COMMON,space=1,delta=1,noexec
    10                           	psect	cstackBANK0,global,class=BANK0,space=1,delta=1,noexec
    11                           	psect	maintext,global,class=CODE,split=1,delta=2
    12                           	psect	text1,local,class=CODE,merge=1,delta=2
    13                           	psect	text2,local,class=CODE,merge=1,delta=2,group=1
    14                           	psect	text3,local,class=CODE,merge=1,delta=2
    15                           	psect	text4,local,class=CODE,merge=1,delta=2
    16                           	psect	text5,local,class=CODE,merge=1,delta=2
    17                           	psect	text6,local,class=CODE,merge=1,delta=2
    18                           	psect	text7,local,class=CODE,merge=1,delta=2
    19                           	psect	text8,local,class=CODE,merge=1,delta=2
    20                           	psect	text9,local,class=CODE,merge=1,delta=2
    21                           	psect	idloc,global,abs,ovrld,class=IDLOC,space=5,delta=2,noexec
    22                           	psect	config,global,abs,ovrld,class=CONFIG,space=4,delta=2,noexec
    23                           	dabs	1,0x7E,2
    24     0000                     
    25                           ; Version 2.40
    26                           ; Generated 17/11/2021 GMT
    27                           ; 
    28                           ; Copyright © 2021, Microchip Technology Inc. and its subsidiaries ("Microchip")
    29                           ; All rights reserved.
    30                           ; 
    31                           ; This software is developed by Microchip Technology Inc. and its subsidiaries ("Microch
      +                          ip").
    32                           ; 
    33                           ; Redistribution and use in source and binary forms, with or without modification, are
    34                           ; permitted provided that the following conditions are met:
    35                           ; 
    36                           ;     1. Redistributions of source code must retain the above copyright notice, this lis
      +                          t of
    37                           ;        conditions and the following disclaimer.
    38                           ; 
    39                           ;     2. Redistributions in binary form must reproduce the above copyright notice, this 
      +                          list
    40                           ;        of conditions and the following disclaimer in the documentation and/or other
    41                           ;        materials provided with the distribution. Publication is not required when
    42                           ;        this file is used in an embedded application.
    43                           ; 
    44                           ;     3. Microchip's name may not be used to endorse or promote products derived from th
      +                          is
    45                           ;        software without specific prior written permission.
    46                           ; 
    47                           ; THIS SOFTWARE IS PROVIDED BY MICROCHIP "AS IS" AND ANY EXPRESS OR IMPLIED WARRANTIES,
    48                           ; INCLUDING, BUT NOT LIMITED TO, THE IMPLIED WARRANTIES OF MERCHANTABILITY AND FITNESS F
      +                          OR
    49                           ; PURPOSE ARE DISCLAIMED.  IN NO EVENT SHALL MICROCHIP BE LIABLE FOR ANY DIRECT, INDIREC
      +                          T,
    50                           ; INCIDENTAL, SPECIAL, EXEMPLARY, OR CONSEQUENTIAL DAMAGES (INCLUDING BUT NOT LIMITED TO
    51                           ; PROCUREMENT OF SUBSTITUTE GOODS OR SERVICES; LOSS OF USE, DATA OR PROFITS; OR BUSINESS
    52                           ; INTERRUPTION) HOWSOEVER CAUSED AND ON ANY THEORY OF LIABILITY, WHETHER IN CONTRACT, ST
      +                          RICT
    53                           ; LIABILITY, OR TORT (INCLUDING NEGLIGENCE OR OTHERWISE) ARISING IN ANY WAY OUT OF THE U
      +                          SE OF
    54                           ; THIS SOFTWARE, EVEN IF ADVISED OF THE POSSIBILITY OF SUCH DAMAGE.
    55                           ; 
    56                           ; 
    57                           ; Code-generator required, PIC16F877A Definitions
    58                           ; 
    59                           ; SFR Addresses
    60     0000                     	;# 
    61     0001                     	;# 
    62     0002                     	;# 
    63     0003                     	;# 
    64     0004                     	;# 
    65     0005                     	;# 
    66     0006                     	;# 
    67     0007                     	;# 
    68     0008                     	;# 
    69     0009                     	;# 
    70     000A                     	;# 
    71     000B                     	;# 
    72     000C                     	;# 
    73     000D                     	;# 
    74     000E                     	;# 
    75     000E                     	;# 
    76     000F                     	;# 
    77     0010                     	;# 
    78     0011                     	;# 
    79     0012                     	;# 
    80     0013                     	;# 
    81     0014                     	;# 
    82     0015                     	;# 
    83     0015                     	;# 
    84     0016                     	;# 
    85     0017                     	;# 
    86     0018                     	;# 
    87     0019                     	;# 
    88     001A                     	;# 
    89     001B                     	;# 
    90     001B                     	;# 
    91     001C                     	;# 
    92     001D                     	;# 
    93     001E                     	;# 
    94     001F                     	;# 
    95     0081                     	;# 
    96     0085                     	;# 
    97     0086                     	;# 
    98     0087                     	;# 
    99     0088                     	;# 
   100     0089                     	;# 
   101     008C                     	;# 
   102     008D                     	;# 
   103     008E                     	;# 
   104     0091                     	;# 
   105     0092                     	;# 
   106     0093                     	;# 
   107     0094                     	;# 
   108     0098                     	;# 
   109     0099                     	;# 
   110     009C                     	;# 
   111     009D                     	;# 
   112     009E                     	;# 
   113     009F                     	;# 
   114     010C                     	;# 
   115     010D                     	;# 
   116     010E                     	;# 
   117     010F                     	;# 
   118     018C                     	;# 
   119     018D                     	;# 
   120     0000                     	;# 
   121     0001                     	;# 
   122     0002                     	;# 
   123     0003                     	;# 
   124     0004                     	;# 
   125     0005                     	;# 
   126     0006                     	;# 
   127     0007                     	;# 
   128     0008                     	;# 
   129     0009                     	;# 
   130     000A                     	;# 
   131     000B                     	;# 
   132     000C                     	;# 
   133     000D                     	;# 
   134     000E                     	;# 
   135     000E                     	;# 
   136     000F                     	;# 
   137     0010                     	;# 
   138     0011                     	;# 
   139     0012                     	;# 
   140     0013                     	;# 
   141     0014                     	;# 
   142     0015                     	;# 
   143     0015                     	;# 
   144     0016                     	;# 
   145     0017                     	;# 
   146     0018                     	;# 
   147     0019                     	;# 
   148     001A                     	;# 
   149     001B                     	;# 
   150     001B                     	;# 
   151     001C                     	;# 
   152     001D                     	;# 
   153     001E                     	;# 
   154     001F                     	;# 
   155     0081                     	;# 
   156     0085                     	;# 
   157     0086                     	;# 
   158     0087                     	;# 
   159     0088                     	;# 
   160     0089                     	;# 
   161     008C                     	;# 
   162     008D                     	;# 
   163     008E                     	;# 
   164     0091                     	;# 
   165     0092                     	;# 
   166     0093                     	;# 
   167     0094                     	;# 
   168     0098                     	;# 
   169     0099                     	;# 
   170     009C                     	;# 
   171     009D                     	;# 
   172     009E                     	;# 
   173     009F                     	;# 
   174     010C                     	;# 
   175     010D                     	;# 
   176     010E                     	;# 
   177     010F                     	;# 
   178     018C                     	;# 
   179     018D                     	;# 
   180     0000                     	;# 
   181     0001                     	;# 
   182     0002                     	;# 
   183     0003                     	;# 
   184     0004                     	;# 
   185     0005                     	;# 
   186     0006                     	;# 
   187     0007                     	;# 
   188     0008                     	;# 
   189     0009                     	;# 
   190     000A                     	;# 
   191     000B                     	;# 
   192     000C                     	;# 
   193     000D                     	;# 
   194     000E                     	;# 
   195     000E                     	;# 
   196     000F                     	;# 
   197     0010                     	;# 
   198     0011                     	;# 
   199     0012                     	;# 
   200     0013                     	;# 
   201     0014                     	;# 
   202     0015                     	;# 
   203     0015                     	;# 
   204     0016                     	;# 
   205     0017                     	;# 
   206     0018                     	;# 
   207     0019                     	;# 
   208     001A                     	;# 
   209     001B                     	;# 
   210     001B                     	;# 
   211     001C                     	;# 
   212     001D                     	;# 
   213     001E                     	;# 
   214     001F                     	;# 
   215     0081                     	;# 
   216     0085                     	;# 
   217     0086                     	;# 
   218     0087                     	;# 
   219     0088                     	;# 
   220     0089                     	;# 
   221     008C                     	;# 
   222     008D                     	;# 
   223     008E                     	;# 
   224     0091                     	;# 
   225     0092                     	;# 
   226     0093                     	;# 
   227     0094                     	;# 
   228     0098                     	;# 
   229     0099                     	;# 
   230     009C                     	;# 
   231     009D                     	;# 
   232     009E                     	;# 
   233     009F                     	;# 
   234     010C                     	;# 
   235     010D                     	;# 
   236     010E                     	;# 
   237     010F                     	;# 
   238     018C                     	;# 
   239     018D                     	;# 
   240     0000                     	;# 
   241     0001                     	;# 
   242     0002                     	;# 
   243     0003                     	;# 
   244     0004                     	;# 
   245     0005                     	;# 
   246     0006                     	;# 
   247     0007                     	;# 
   248     0008                     	;# 
   249     0009                     	;# 
   250     000A                     	;# 
   251     000B                     	;# 
   252     000C                     	;# 
   253     000D                     	;# 
   254     000E                     	;# 
   255     000E                     	;# 
   256     000F                     	;# 
   257     0010                     	;# 
   258     0011                     	;# 
   259     0012                     	;# 
   260     0013                     	;# 
   261     0014                     	;# 
   262     0015                     	;# 
   263     0015                     	;# 
   264     0016                     	;# 
   265     0017                     	;# 
   266     0018                     	;# 
   267     0019                     	;# 
   268     001A                     	;# 
   269     001B                     	;# 
   270     001B                     	;# 
   271     001C                     	;# 
   272     001D                     	;# 
   273     001E                     	;# 
   274     001F                     	;# 
   275     0081                     	;# 
   276     0085                     	;# 
   277     0086                     	;# 
   278     0087                     	;# 
   279     0088                     	;# 
   280     0089                     	;# 
   281     008C                     	;# 
   282     008D                     	;# 
   283     008E                     	;# 
   284     0091                     	;# 
   285     0092                     	;# 
   286     0093                     	;# 
   287     0094                     	;# 
   288     0098                     	;# 
   289     0099                     	;# 
   290     009C                     	;# 
   291     009D                     	;# 
   292     009E                     	;# 
   293     009F                     	;# 
   294     010C                     	;# 
   295     010D                     	;# 
   296     010E                     	;# 
   297     010F                     	;# 
   298     018C                     	;# 
   299     018D                     	;# 
   300                           
   301                           	psect	idataBANK0
   302     0721                     __pidataBANK0:
   303                           
   304                           ;initializer for _FONT_7x5
   305     0721  343E               	retlw	62
   306     0722  3451               	retlw	81
   307     0723  3449               	retlw	73
   308     0724  3445               	retlw	69
   309     0725  343E               	retlw	62
   310     0726  3400               	retlw	0
   311     0727  3442               	retlw	66
   312     0728  347F               	retlw	127
   313     0729  3440               	retlw	64
   314     072A  3400               	retlw	0
   315     072B  3442               	retlw	66
   316     072C  3461               	retlw	97
   317     072D  3451               	retlw	81
   318     072E  3449               	retlw	73
   319     072F  3446               	retlw	70
   320     0730  3421               	retlw	33
   321     0731  3441               	retlw	65
   322     0732  3445               	retlw	69
   323     0733  344B               	retlw	75
   324     0734  3431               	retlw	49
   325     0735  3418               	retlw	24
   326     0736  3414               	retlw	20
   327     0737  3412               	retlw	18
   328     0738  347F               	retlw	127
   329     0739  3410               	retlw	16
   330     073A  3427               	retlw	39
   331     073B  3445               	retlw	69
   332     073C  3445               	retlw	69
   333     073D  3445               	retlw	69
   334     073E  3439               	retlw	57
   335     073F  343C               	retlw	60
   336     0740  344A               	retlw	74
   337     0741  3449               	retlw	73
   338     0742  3449               	retlw	73
   339     0743  3430               	retlw	48
   340     0744  3403               	retlw	3
   341     0745  3471               	retlw	113
   342     0746  3409               	retlw	9
   343     0747  3405               	retlw	5
   344     0748  3403               	retlw	3
   345     0749  3436               	retlw	54
   346     074A  3449               	retlw	73
   347     074B  3449               	retlw	73
   348     074C  3449               	retlw	73
   349     074D  3436               	retlw	54
   350     074E  3406               	retlw	6
   351     074F  3449               	retlw	73
   352     0750  3449               	retlw	73
   353     0751  3429               	retlw	41
   354     0752  341E               	retlw	30
   355                           
   356                           ;initializer for _SS_pin
   357     0753  3401               	retlw	1
   358     0754  3402               	retlw	2
   359     0755  3404               	retlw	4
   360     0756  3408               	retlw	8
   361     0757  3410               	retlw	16
   362     0758  3420               	retlw	32
   363     0759  3440               	retlw	64
   364     075A  3480               	retlw	128
   365     0013                     _SSPBUF	set	19
   366     0008                     _PORTD	set	8
   367     0063                     _SSPIF	set	99
   368     00A7                     _WCOL	set	167
   369     005F                     _GIE	set	95
   370     005E                     _PEIE	set	94
   371     00A4                     _CKP	set	164
   372     00A5                     _SSPEN	set	165
   373     00A0                     _SSPM0	set	160
   374     00A1                     _SSPM1	set	161
   375     00A2                     _SSPM2	set	162
   376     00A3                     _SSPM3	set	163
   377     0088                     _TRISD	set	136
   378     0463                     _SSPIE	set	1123
   379     04F8                     _PCFG0	set	1272
   380     04F9                     _PCFG1	set	1273
   381     04FA                     _PCFG2	set	1274
   382     04FB                     _PCFG3	set	1275
   383     042D                     _TRISA5	set	1069
   384     043B                     _TRISC3	set	1083
   385     043C                     _TRISC4	set	1084
   386     043D                     _TRISC5	set	1085
   387     04A7                     _SMP	set	1191
   388     04A6                     _CKE	set	1190
   389                           
   390                           	psect	cinit
   391     07ED                     start_initialization:	
   392                           ; #config settings
   393                           
   394     07ED                     __initialization:
   395                           
   396                           ; Initialize objects allocated to BANK0
   397     07ED  1383               	bcf	3,7	;select IRP bank0
   398     07EE  305A               	movlw	low (__pdataBANK0+58)
   399     07EF  00FD               	movwf	btemp+-1
   400     07F0  3007               	movlw	high __pidataBANK0
   401     07F1  00FE               	movwf	btemp
   402     07F2  3021               	movlw	low __pidataBANK0
   403     07F3  00FF               	movwf	btemp+1
   404     07F4  3020               	movlw	low __pdataBANK0
   405     07F5  0084               	movwf	4
   406     07F6  120A  118A  269A  120A  118A  	fcall	init_ram0
   407                           
   408                           ; Clear objects allocated to BANK0
   409     07FB  01DD               	clrf	__pbssBANK0& (0+127)
   410     07FC                     end_of_initialization:	
   411                           ;End of C runtime variable initialization code
   412                           
   413     07FC                     __end_of__initialization:
   414     07FC  0183               	clrf	3
   415     07FD  120A  118A  2EEF   	ljmp	_main	;jump to C main() function
   416                           
   417                           	psect	bssBANK0
   418     005D                     __pbssBANK0:
   419     005D                     _rcv_byte:
   420     005D                     	ds	1
   421                           
   422                           	psect	dataBANK0
   423     0020                     __pdataBANK0:
   424     0020                     _FONT_7x5:
   425     0020                     	ds	50
   426     0052                     _SS_pin:
   427     0052                     	ds	8
   428                           
   429                           	psect	inittext
   430     0696                     init_fetch0:	
   431                           ;	Called with low address in FSR and high address in W
   432                           
   433     0696  087E               	movf	btemp,w
   434     0697  008A               	movwf	10
   435     0698  087F               	movf	btemp+1,w
   436     0699  0082               	movwf	2
   437     069A                     init_ram0:	
   438                           ;Called with:
   439                           ;	high address of idata address in btemp 
   440                           ;	low address of idata address in btemp+1 
   441                           ;	low address of data in FSR
   442                           ;	high address + 1 of data in btemp-1
   443                           
   444     069A  120A  118A  2696  120A  118A  	fcall	init_fetch0
   445     069F  0080               	movwf	0
   446     06A0  0A84               	incf	4,f
   447     06A1  0804               	movf	4,w
   448     06A2  067D               	xorwf	btemp+-1,w
   449     06A3  1903               	btfsc	3,2
   450     06A4  3400               	retlw	0
   451     06A5  0AFF               	incf	btemp+1,f
   452     06A6  1903               	btfsc	3,2
   453     06A7  0AFE               	incf	btemp,f
   454     06A8  2E9A               	goto	init_ram0
   455                           
   456                           	psect	cstackCOMMON
   457     0070                     __pcstackCOMMON:
   458     0070                     ?_SPI_Master_Init:
   459     0070                     ??_SPI_Master_Init:	
   460                           ; 1 bytes @ 0x0
   461                           
   462     0070                     ?_SS_Enable:	
   463                           ; 1 bytes @ 0x0
   464                           
   465     0070                     ??_SS_Enable:	
   466                           ; 1 bytes @ 0x0
   467                           
   468     0070                     ?_SS_Disable:	
   469                           ; 1 bytes @ 0x0
   470                           
   471     0070                     ??_SS_Disable:	
   472                           ; 1 bytes @ 0x0
   473                           
   474     0070                     ?_SPI_Tx_Byte:	
   475                           ; 1 bytes @ 0x0
   476                           
   477     0070                     ??_SPI_Tx_Byte:	
   478                           ; 1 bytes @ 0x0
   479                           
   480     0070                     ?_Matrix_Init:	
   481                           ; 1 bytes @ 0x0
   482                           
   483     0070                     ?_Matrix_Clear:	
   484                           ; 1 bytes @ 0x0
   485                           
   486     0070                     ?_main:	
   487                           ; 1 bytes @ 0x0
   488                           
   489     0070                     ?___bmul:	
   490                           ; 1 bytes @ 0x0
   491                           
   492     0070                     SS_Enable@slave:	
   493                           ; 1 bytes @ 0x0
   494                           
   495     0070                     SS_Disable@slave:	
   496                           ; 1 bytes @ 0x0
   497                           
   498     0070                     SPI_Tx_Byte@data:	
   499                           ; 1 bytes @ 0x0
   500                           
   501     0070                     ___bmul@multiplicand:	
   502                           ; 1 bytes @ 0x0
   503                           
   504                           
   505                           ; 1 bytes @ 0x0
   506     0070                     	ds	1
   507     0071                     ??___bmul:
   508     0071                     ___bmul@product:	
   509                           ; 1 bytes @ 0x1
   510                           
   511                           
   512                           ; 1 bytes @ 0x1
   513     0071                     	ds	1
   514     0072                     ___bmul@multiplier:
   515                           
   516                           ; 1 bytes @ 0x2
   517     0072                     	ds	1
   518     0073                     ?_TxByte:
   519     0073                     TxByte@col:	
   520                           ; 1 bytes @ 0x3
   521                           
   522                           
   523                           ; 1 bytes @ 0x3
   524     0073                     	ds	1
   525     0074                     TxByte@data:
   526                           
   527                           ; 1 bytes @ 0x4
   528     0074                     	ds	1
   529     0075                     ??_TxByte:
   530     0075                     TxByte@slave:	
   531                           ; 1 bytes @ 0x5
   532                           
   533                           
   534                           ; 1 bytes @ 0x5
   535     0075                     	ds	1
   536     0076                     ??_Matrix_Init:
   537     0076                     ??_Matrix_Clear:	
   538                           ; 1 bytes @ 0x6
   539                           
   540     0076                     ?_Matrix_Write_Char:	
   541                           ; 1 bytes @ 0x6
   542                           
   543     0076                     Matrix_Init@i:	
   544                           ; 1 bytes @ 0x6
   545                           
   546     0076                     Matrix_Clear@slave:	
   547                           ; 1 bytes @ 0x6
   548                           
   549     0076                     Matrix_Write_Char@data:	
   550                           ; 1 bytes @ 0x6
   551                           
   552                           
   553                           ; 1 bytes @ 0x6
   554     0076                     	ds	1
   555     0077                     ??_Matrix_Write_Char:
   556     0077                     Matrix_Clear@j:	
   557                           ; 1 bytes @ 0x7
   558                           
   559                           
   560                           ; 1 bytes @ 0x7
   561     0077                     	ds	3
   562     007A                     Matrix_Write_Char@font:
   563                           
   564                           ; 1 bytes @ 0xA
   565     007A                     	ds	1
   566     007B                     Matrix_Write_Char@slave:
   567                           
   568                           ; 1 bytes @ 0xB
   569     007B                     	ds	1
   570     007C                     Matrix_Write_Char@col:
   571                           
   572                           ; 1 bytes @ 0xC
   573     007C                     	ds	1
   574     007D                     main@c:
   575                           
   576                           ; 1 bytes @ 0xD
   577     007D                     	ds	1
   578                           
   579                           	psect	cstackBANK0
   580     005A                     __pcstackBANK0:
   581     005A                     ??_main:
   582                           
   583                           ; 1 bytes @ 0x0
   584     005A                     	ds	3
   585                           
   586                           	psect	maintext
   587     06EF                     __pmaintext:	
   588 ;;
   589 ;;Main: autosize = 0, tempsize = 3, incstack = 0, save=0
   590 ;;
   591 ;; *************** function _main *****************
   592 ;; Defined at:
   593 ;;		line 7 in file "PIC16F877A_SPI_MAX7219_DotMatrix.c"
   594 ;; Parameters:    Size  Location     Type
   595 ;;		None
   596 ;; Auto vars:     Size  Location     Type
   597 ;;  c               1   13[COMMON] unsigned char 
   598 ;; Return value:  Size  Location     Type
   599 ;;                  1    wreg      void 
   600 ;; Registers used:
   601 ;;		wreg, fsr0l, fsr0h, status,2, status,0, btemp+1, pclath, cstack
   602 ;; Tracked objects:
   603 ;;		On entry : B00/0
   604 ;;		On exit  : 0/0
   605 ;;		Unchanged: 0/0
   606 ;; Data sizes:     COMMON   BANK0   BANK1   BANK3   BANK2
   607 ;;      Params:         0       0       0       0       0
   608 ;;      Locals:         1       0       0       0       0
   609 ;;      Temps:          0       3       0       0       0
   610 ;;      Totals:         1       3       0       0       0
   611 ;;Total ram usage:        4 bytes
   612 ;; Hardware stack levels required when called: 3
   613 ;; This function calls:
   614 ;;		_Matrix_Clear
   615 ;;		_Matrix_Init
   616 ;;		_Matrix_Write_Char
   617 ;; This function is called by:
   618 ;;		Startup code after reset
   619 ;; This function uses a non-reentrant model
   620 ;;
   621                           
   622     06EF                     _main:	
   623                           ;psect for function _main
   624                           
   625     06EF                     l957:	
   626                           ;incstack = 0
   627                           ; Regs used in _main: [wreg-fsr0h+status,2+status,0+btemp+1+pclath+cstack]
   628                           
   629                           
   630                           ;PIC16F877A_SPI_MAX7219_DotMatrix.c: 9:     uint8_t c = 0;
   631     06EF  01FD               	clrf	main@c
   632     06F0                     l959:
   633                           
   634                           ;PIC16F877A_SPI_MAX7219_DotMatrix.c: 12:     Matrix_Init();
   635     06F0  120A  118A  275B  120A  118A  	fcall	_Matrix_Init
   636     06F5                     l961:
   637                           
   638                           ;PIC16F877A_SPI_MAX7219_DotMatrix.c: 13:     Matrix_Clear(1);
   639     06F5  3001               	movlw	1
   640     06F6  120A  118A  26BE  120A  118A  	fcall	_Matrix_Clear
   641     06FB                     l963:
   642                           
   643                           ;PIC16F877A_SPI_MAX7219_DotMatrix.c: 17:     {;PIC16F877A_SPI_MAX7219_DotMatrix.c: 18:  
      +                                 Matrix_Write_Char(1, c++);
   644     06FB  087D               	movf	main@c,w
   645     06FC  00F6               	movwf	Matrix_Write_Char@data
   646     06FD  3001               	movlw	1
   647     06FE  120A  118A  279D  120A  118A  	fcall	_Matrix_Write_Char
   648     0703                     l965:
   649     0703  3001               	movlw	1
   650     0704  00FF               	movwf	btemp+1
   651     0705  087F               	movf	btemp+1,w
   652     0706  07FD               	addwf	main@c,f
   653     0707                     l967:
   654                           
   655                           ;PIC16F877A_SPI_MAX7219_DotMatrix.c: 19:         if(c > 9)
   656     0707  300A               	movlw	10
   657     0708  027D               	subwf	main@c,w
   658     0709  1C03               	skipc
   659     070A  2F0C               	goto	u211
   660     070B  2F0D               	goto	u210
   661     070C                     u211:
   662     070C  2F0E               	goto	l971
   663     070D                     u210:
   664     070D                     l969:
   665                           
   666                           ;PIC16F877A_SPI_MAX7219_DotMatrix.c: 20:             c = 0;
   667     070D  01FD               	clrf	main@c
   668     070E                     l971:
   669                           
   670                           ;PIC16F877A_SPI_MAX7219_DotMatrix.c: 21:         _delay((unsigned long)((1000)*(16000000
      +                          /4000.0)));
   671     070E  3015               	movlw	21
   672     070F  1283               	bcf	3,5	;RP0=0, select bank0
   673     0710  1303               	bcf	3,6	;RP1=0, select bank0
   674     0711  00DC               	movwf	??_main+2
   675     0712  304B               	movlw	75
   676     0713  00DB               	movwf	??_main+1
   677     0714  30BD               	movlw	189
   678     0715  00DA               	movwf	??_main
   679     0716                     u227:
   680     0716  0BDA               	decfsz	??_main,f
   681     0717  2F16               	goto	u227
   682     0718  0BDB               	decfsz	??_main+1,f
   683     0719  2F16               	goto	u227
   684     071A  0BDC               	decfsz	??_main+2,f
   685     071B  2F16               	goto	u227
   686     071C  2F1D               	nop2
   687     071D  2EFB               	goto	l963
   688     071E  120A  118A  2800   	ljmp	start
   689     0721                     __end_of_main:
   690                           
   691                           	psect	text1
   692     079D                     __ptext1:	
   693 ;; *************** function _Matrix_Write_Char *****************
   694 ;; Defined at:
   695 ;;		line 53 in file "MAX7219_DotMatrix.c"
   696 ;; Parameters:    Size  Location     Type
   697 ;;  slave           1    wreg     unsigned char 
   698 ;;  data            1    6[COMMON] unsigned char 
   699 ;; Auto vars:     Size  Location     Type
   700 ;;  slave           1   11[COMMON] unsigned char 
   701 ;;  col             1   12[COMMON] unsigned char 
   702 ;;  font            1   10[COMMON] unsigned char 
   703 ;; Return value:  Size  Location     Type
   704 ;;                  1    wreg      void 
   705 ;; Registers used:
   706 ;;		wreg, fsr0l, fsr0h, status,2, status,0, btemp+1, pclath, cstack
   707 ;; Tracked objects:
   708 ;;		On entry : 0/0
   709 ;;		On exit  : 0/0
   710 ;;		Unchanged: 0/0
   711 ;; Data sizes:     COMMON   BANK0   BANK1   BANK3   BANK2
   712 ;;      Params:         1       0       0       0       0
   713 ;;      Locals:         3       0       0       0       0
   714 ;;      Temps:          3       0       0       0       0
   715 ;;      Totals:         7       0       0       0       0
   716 ;;Total ram usage:        7 bytes
   717 ;; Hardware stack levels used: 1
   718 ;; Hardware stack levels required when called: 2
   719 ;; This function calls:
   720 ;;		_TxByte
   721 ;;		___bmul
   722 ;; This function is called by:
   723 ;;		_main
   724 ;; This function uses a non-reentrant model
   725 ;;
   726                           
   727     079D                     _Matrix_Write_Char:	
   728                           ;psect for function _Matrix_Write_Char
   729                           
   730                           
   731                           ;incstack = 0
   732                           ; Regs used in _Matrix_Write_Char: [wreg-fsr0h+status,2+status,0+btemp+1+pclath+cstack]
   733                           ;Matrix_Write_Char@slave stored from wreg
   734     079D  00FB               	movwf	Matrix_Write_Char@slave
   735     079E                     l939:
   736     079E                     l941:
   737                           
   738                           ;MAX7219_DotMatrix.c: 56:     uint8_t font = 5;
   739     079E  3005               	movlw	5
   740     079F  00FA               	movwf	Matrix_Write_Char@font
   741                           
   742                           ;MAX7219_DotMatrix.c: 59:     if(data > 9)
   743     07A0  300A               	movlw	10
   744     07A1  0276               	subwf	Matrix_Write_Char@data,w
   745     07A2  1C03               	skipc
   746     07A3  2FA5               	goto	u191
   747     07A4  2FA6               	goto	u190
   748     07A5                     u191:
   749     07A5  2FA7               	goto	l945
   750     07A6                     u190:
   751     07A6  2FEC               	goto	l117
   752     07A7                     l945:
   753                           
   754                           ;MAX7219_DotMatrix.c: 62:     TxByte(slave, col, 0x00);
   755     07A7  01F3               	clrf	TxByte@col
   756     07A8  0AF3               	incf	TxByte@col,f
   757     07A9  01F4               	clrf	TxByte@data
   758     07AA  087B               	movf	Matrix_Write_Char@slave,w
   759     07AB  120A  118A  26D5  120A  118A  	fcall	_TxByte
   760     07B0                     l947:
   761                           
   762                           ;MAX7219_DotMatrix.c: 63:     for(col = 2; col <= font + 1; ++col)
   763     07B0  3002               	movlw	2
   764     07B1  00FC               	movwf	Matrix_Write_Char@col
   765     07B2  2FCF               	goto	l953
   766     07B3                     l949:
   767                           
   768                           ;MAX7219_DotMatrix.c: 64:         TxByte(slave, col, FONT_7x5[data][col - 2]);
   769     07B3  087C               	movf	Matrix_Write_Char@col,w
   770     07B4  00F3               	movwf	TxByte@col
   771     07B5  3005               	movlw	5
   772     07B6  00F0               	movwf	___bmul@multiplicand
   773     07B7  0876               	movf	Matrix_Write_Char@data,w
   774     07B8  120A  118A  26A9  120A  118A  	fcall	___bmul
   775     07BD  3E1E               	addlw	(low ((_FONT_7x5| 0+254)))& (0+255)
   776     07BE  077C               	addwf	Matrix_Write_Char@col,w
   777     07BF  00F7               	movwf	??_Matrix_Write_Char
   778     07C0  0877               	movf	??_Matrix_Write_Char,w
   779     07C1  0084               	movwf	4
   780     07C2  1383               	bcf	3,7	;select IRP bank0
   781     07C3  0800               	movf	0,w
   782     07C4  00F4               	movwf	TxByte@data
   783     07C5  087B               	movf	Matrix_Write_Char@slave,w
   784     07C6  120A  118A  26D5  120A  118A  	fcall	_TxByte
   785     07CB                     l951:
   786     07CB  3001               	movlw	1
   787     07CC  00FF               	movwf	btemp+1
   788     07CD  087F               	movf	btemp+1,w
   789     07CE  07FC               	addwf	Matrix_Write_Char@col,f
   790     07CF                     l953:
   791     07CF  087A               	movf	Matrix_Write_Char@font,w
   792     07D0  3E01               	addlw	1
   793     07D1  00F7               	movwf	??_Matrix_Write_Char
   794     07D2  3000               	movlw	0
   795     07D3  1803               	skipnc
   796     07D4  3001               	movlw	1
   797     07D5  00F8               	movwf	??_Matrix_Write_Char+1
   798     07D6  0878               	movf	??_Matrix_Write_Char+1,w
   799     07D7  3A80               	xorlw	128
   800     07D8  00F9               	movwf	??_Matrix_Write_Char+2
   801     07D9  3080               	movlw	128
   802     07DA  0279               	subwf	??_Matrix_Write_Char+2,w
   803     07DB  1D03               	skipz
   804     07DC  2FDF               	goto	u205
   805     07DD  087C               	movf	Matrix_Write_Char@col,w
   806     07DE  0277               	subwf	??_Matrix_Write_Char,w
   807     07DF                     u205:
   808     07DF  1803               	skipnc
   809     07E0  2FE2               	goto	u201
   810     07E1  2FE3               	goto	u200
   811     07E2                     u201:
   812     07E2  2FB3               	goto	l949
   813     07E3                     u200:
   814     07E3                     l955:
   815                           
   816                           ;MAX7219_DotMatrix.c: 65:     TxByte(slave, col, 0x00);
   817     07E3  087C               	movf	Matrix_Write_Char@col,w
   818     07E4  00F3               	movwf	TxByte@col
   819     07E5  01F4               	clrf	TxByte@data
   820     07E6  087B               	movf	Matrix_Write_Char@slave,w
   821     07E7  120A  118A  26D5  120A  118A  	fcall	_TxByte
   822     07EC                     l117:
   823     07EC  0008               	return
   824     07ED                     __end_of_Matrix_Write_Char:
   825                           
   826                           	psect	text2
   827     06A9                     __ptext2:	
   828 ;; *************** function ___bmul *****************
   829 ;; Defined at:
   830 ;;		line 4 in file "C:\Program Files\Microchip\xc8\v2.41\pic\sources\c90\common\Umul8.c"
   831 ;; Parameters:    Size  Location     Type
   832 ;;  multiplier      1    wreg     unsigned char 
   833 ;;  multiplicand    1    0[COMMON] unsigned char 
   834 ;; Auto vars:     Size  Location     Type
   835 ;;  multiplier      1    2[COMMON] unsigned char 
   836 ;;  product         1    1[COMMON] unsigned char 
   837 ;; Return value:  Size  Location     Type
   838 ;;                  1    wreg      unsigned char 
   839 ;; Registers used:
   840 ;;		wreg, status,2, status,0, btemp+1
   841 ;; Tracked objects:
   842 ;;		On entry : 0/0
   843 ;;		On exit  : 0/0
   844 ;;		Unchanged: 0/0
   845 ;; Data sizes:     COMMON   BANK0   BANK1   BANK3   BANK2
   846 ;;      Params:         1       0       0       0       0
   847 ;;      Locals:         2       0       0       0       0
   848 ;;      Temps:          0       0       0       0       0
   849 ;;      Totals:         3       0       0       0       0
   850 ;;Total ram usage:        3 bytes
   851 ;; Hardware stack levels used: 1
   852 ;; This function calls:
   853 ;;		Nothing
   854 ;; This function is called by:
   855 ;;		_Matrix_Write_Char
   856 ;; This function uses a non-reentrant model
   857 ;;
   858                           
   859     06A9                     ___bmul:	
   860                           ;psect for function ___bmul
   861                           
   862                           
   863                           ;incstack = 0
   864                           ; Regs used in ___bmul: [wreg+status,2+status,0+btemp+1]
   865                           ;___bmul@multiplier stored from wreg
   866     06A9  00F2               	movwf	___bmul@multiplier
   867     06AA                     l897:
   868     06AA  01F1               	clrf	___bmul@product
   869     06AB                     l899:
   870     06AB  1C72               	btfss	___bmul@multiplier,0
   871     06AC  2EAE               	goto	u151
   872     06AD  2EAF               	goto	u150
   873     06AE                     u151:
   874     06AE  2EB3               	goto	l903
   875     06AF                     u150:
   876     06AF                     l901:
   877     06AF  0870               	movf	___bmul@multiplicand,w
   878     06B0  00FF               	movwf	btemp+1
   879     06B1  087F               	movf	btemp+1,w
   880     06B2  07F1               	addwf	___bmul@product,f
   881     06B3                     l903:
   882     06B3  1003               	clrc
   883     06B4  0DF0               	rlf	___bmul@multiplicand,f
   884     06B5                     l905:
   885     06B5  1003               	clrc
   886     06B6  0CF2               	rrf	___bmul@multiplier,f
   887     06B7                     l907:
   888     06B7  0872               	movf	___bmul@multiplier,w
   889     06B8  1D03               	btfss	3,2
   890     06B9  2EBB               	goto	u161
   891     06BA  2EBC               	goto	u160
   892     06BB                     u161:
   893     06BB  2EAB               	goto	l899
   894     06BC                     u160:
   895     06BC                     l909:
   896     06BC  0871               	movf	___bmul@product,w
   897     06BD                     l255:
   898     06BD  0008               	return
   899     06BE                     __end_of___bmul:
   900                           
   901                           	psect	text3
   902     075B                     __ptext3:	
   903 ;; *************** function _Matrix_Init *****************
   904 ;; Defined at:
   905 ;;		line 20 in file "MAX7219_DotMatrix.c"
   906 ;; Parameters:    Size  Location     Type
   907 ;;		None
   908 ;; Auto vars:     Size  Location     Type
   909 ;;  i               1    6[COMMON] unsigned char 
   910 ;; Return value:  Size  Location     Type
   911 ;;                  1    wreg      void 
   912 ;; Registers used:
   913 ;;		wreg, fsr0l, fsr0h, status,2, status,0, btemp+1, pclath, cstack
   914 ;; Tracked objects:
   915 ;;		On entry : 0/0
   916 ;;		On exit  : 0/0
   917 ;;		Unchanged: 0/0
   918 ;; Data sizes:     COMMON   BANK0   BANK1   BANK3   BANK2
   919 ;;      Params:         0       0       0       0       0
   920 ;;      Locals:         1       0       0       0       0
   921 ;;      Temps:          0       0       0       0       0
   922 ;;      Totals:         1       0       0       0       0
   923 ;;Total ram usage:        1 bytes
   924 ;; Hardware stack levels used: 1
   925 ;; Hardware stack levels required when called: 2
   926 ;; This function calls:
   927 ;;		_SPI_Master_Init
   928 ;;		_TxByte
   929 ;; This function is called by:
   930 ;;		_main
   931 ;; This function uses a non-reentrant model
   932 ;;
   933                           
   934     075B                     _Matrix_Init:	
   935                           ;psect for function _Matrix_Init
   936                           
   937     075B                     l913:	
   938                           ;incstack = 0
   939                           ; Regs used in _Matrix_Init: [wreg-fsr0h+status,2+status,0+btemp+1+pclath+cstack]
   940                           
   941                           
   942                           ;MAX7219_DotMatrix.c: 23:     SPI_Master_Init();
   943     075B  120A  118A  2683  120A  118A  	fcall	_SPI_Master_Init
   944     0760                     l915:
   945                           
   946                           ;MAX7219_DotMatrix.c: 26:     for(uint8_t i = 1; i <= 1; ++i)
   947     0760  01F6               	clrf	Matrix_Init@i
   948     0761  0AF6               	incf	Matrix_Init@i,f
   949     0762                     l921:
   950                           
   951                           ;MAX7219_DotMatrix.c: 27:     {;MAX7219_DotMatrix.c: 29:         TxByte(i, 0x09, 0x00);
   952     0762  3009               	movlw	9
   953     0763  00F3               	movwf	TxByte@col
   954     0764  01F4               	clrf	TxByte@data
   955     0765  0876               	movf	Matrix_Init@i,w
   956     0766  120A  118A  26D5  120A  118A  	fcall	_TxByte
   957                           
   958                           ;MAX7219_DotMatrix.c: 32:         TxByte(i, 0x0A, 0x08);
   959     076B  300A               	movlw	10
   960     076C  00F3               	movwf	TxByte@col
   961     076D  3008               	movlw	8
   962     076E  00F4               	movwf	TxByte@data
   963     076F  0876               	movf	Matrix_Init@i,w
   964     0770  120A  118A  26D5  120A  118A  	fcall	_TxByte
   965                           
   966                           ;MAX7219_DotMatrix.c: 35:         TxByte(i, 0x0B, 0x07);
   967     0775  300B               	movlw	11
   968     0776  00F3               	movwf	TxByte@col
   969     0777  3007               	movlw	7
   970     0778  00F4               	movwf	TxByte@data
   971     0779  0876               	movf	Matrix_Init@i,w
   972     077A  120A  118A  26D5  120A  118A  	fcall	_TxByte
   973                           
   974                           ;MAX7219_DotMatrix.c: 38:         TxByte(i, 0x0C, 0x01);
   975     077F  300C               	movlw	12
   976     0780  00F3               	movwf	TxByte@col
   977     0781  01F4               	clrf	TxByte@data
   978     0782  0AF4               	incf	TxByte@data,f
   979     0783  0876               	movf	Matrix_Init@i,w
   980     0784  120A  118A  26D5  120A  118A  	fcall	_TxByte
   981                           
   982                           ;MAX7219_DotMatrix.c: 41:         TxByte(i, 0x0F, 0x00);
   983     0789  300F               	movlw	15
   984     078A  00F3               	movwf	TxByte@col
   985     078B  01F4               	clrf	TxByte@data
   986     078C  0876               	movf	Matrix_Init@i,w
   987     078D  120A  118A  26D5  120A  118A  	fcall	_TxByte
   988     0792                     l923:
   989                           
   990                           ;MAX7219_DotMatrix.c: 42:     }
   991     0792  3001               	movlw	1
   992     0793  00FF               	movwf	btemp+1
   993     0794  087F               	movf	btemp+1,w
   994     0795  07F6               	addwf	Matrix_Init@i,f
   995     0796                     l925:
   996     0796  3002               	movlw	2
   997     0797  0276               	subwf	Matrix_Init@i,w
   998     0798  1C03               	skipc
   999     0799  2F9B               	goto	u171
  1000     079A  2F9C               	goto	u170
  1001     079B                     u171:
  1002     079B  2F62               	goto	l921
  1003     079C                     u170:
  1004     079C                     l108:
  1005     079C  0008               	return
  1006     079D                     __end_of_Matrix_Init:
  1007                           
  1008                           	psect	text4
  1009     0683                     __ptext4:	
  1010 ;; *************** function _SPI_Master_Init *****************
  1011 ;; Defined at:
  1012 ;;		line 4 in file "PIC16F877A_SPI.c"
  1013 ;; Parameters:    Size  Location     Type
  1014 ;;		None
  1015 ;; Auto vars:     Size  Location     Type
  1016 ;;		None
  1017 ;; Return value:  Size  Location     Type
  1018 ;;                  1    wreg      void 
  1019 ;; Registers used:
  1020 ;;		status,2
  1021 ;; Tracked objects:
  1022 ;;		On entry : 0/0
  1023 ;;		On exit  : 0/0
  1024 ;;		Unchanged: 0/0
  1025 ;; Data sizes:     COMMON   BANK0   BANK1   BANK3   BANK2
  1026 ;;      Params:         0       0       0       0       0
  1027 ;;      Locals:         0       0       0       0       0
  1028 ;;      Temps:          0       0       0       0       0
  1029 ;;      Totals:         0       0       0       0       0
  1030 ;;Total ram usage:        0 bytes
  1031 ;; Hardware stack levels used: 1
  1032 ;; This function calls:
  1033 ;;		Nothing
  1034 ;; This function is called by:
  1035 ;;		_Matrix_Init
  1036 ;; This function uses a non-reentrant model
  1037 ;;
  1038                           
  1039     0683                     _SPI_Master_Init:	
  1040                           ;psect for function _SPI_Master_Init
  1041                           
  1042     0683                     l753:	
  1043                           ;incstack = 0
  1044                           ; Regs used in _SPI_Master_Init: [status,2]
  1045                           
  1046                           
  1047                           ;PIC16F877A_SPI.c: 7:     TRISD = 0x00;
  1048     0683  1683               	bsf	3,5	;RP0=1, select bank1
  1049     0684  1303               	bcf	3,6	;RP1=0, select bank1
  1050     0685  0188               	clrf	8	;volatile
  1051     0686                     l755:
  1052                           
  1053                           ;PIC16F877A_SPI.c: 9:     SSPM3 = 0;
  1054     0686  1283               	bcf	3,5	;RP0=0, select bank0
  1055     0687  1303               	bcf	3,6	;RP1=0, select bank0
  1056     0688  1194               	bcf	20,3	;volatile
  1057     0689                     l757:
  1058                           
  1059                           ;PIC16F877A_SPI.c: 10:     SSPM2 = 0;
  1060     0689  1114               	bcf	20,2	;volatile
  1061     068A                     l759:
  1062                           
  1063                           ;PIC16F877A_SPI.c: 11:     SSPM1 = 0;
  1064     068A  1094               	bcf	20,1	;volatile
  1065     068B                     l761:
  1066                           
  1067                           ;PIC16F877A_SPI.c: 12:     SSPM0 = 0;
  1068     068B  1014               	bcf	20,0	;volatile
  1069     068C                     l763:
  1070                           
  1071                           ;PIC16F877A_SPI.c: 14:     SSPEN = 1;
  1072     068C  1694               	bsf	20,5	;volatile
  1073     068D                     l765:
  1074                           
  1075                           ;PIC16F877A_SPI.c: 16:     CKP = 0;
  1076     068D  1214               	bcf	20,4	;volatile
  1077     068E                     l767:
  1078                           
  1079                           ;PIC16F877A_SPI.c: 17:     CKE = 0;
  1080     068E  1683               	bsf	3,5	;RP0=1, select bank1
  1081     068F  1303               	bcf	3,6	;RP1=0, select bank1
  1082     0690  1314               	bcf	20,6	;volatile
  1083     0691                     l769:
  1084                           
  1085                           ;PIC16F877A_SPI.c: 19:     SMP = 0;
  1086     0691  1394               	bcf	20,7	;volatile
  1087     0692                     l771:
  1088                           
  1089                           ;PIC16F877A_SPI.c: 21:     TRISC5 = 0;
  1090     0692  1287               	bcf	7,5	;volatile
  1091     0693                     l773:
  1092                           
  1093                           ;PIC16F877A_SPI.c: 22:     TRISC4 = 1;
  1094     0693  1607               	bsf	7,4	;volatile
  1095     0694                     l775:
  1096                           
  1097                           ;PIC16F877A_SPI.c: 23:     TRISC3 = 0;
  1098     0694  1187               	bcf	7,3	;volatile
  1099     0695                     l55:
  1100     0695  0008               	return
  1101     0696                     __end_of_SPI_Master_Init:
  1102                           
  1103                           	psect	text5
  1104     06BE                     __ptext5:	
  1105 ;; *************** function _Matrix_Clear *****************
  1106 ;; Defined at:
  1107 ;;		line 46 in file "MAX7219_DotMatrix.c"
  1108 ;; Parameters:    Size  Location     Type
  1109 ;;  slave           1    wreg     unsigned char 
  1110 ;; Auto vars:     Size  Location     Type
  1111 ;;  slave           1    6[COMMON] unsigned char 
  1112 ;;  j               1    7[COMMON] unsigned char 
  1113 ;; Return value:  Size  Location     Type
  1114 ;;                  1    wreg      void 
  1115 ;; Registers used:
  1116 ;;		wreg, fsr0l, fsr0h, status,2, status,0, btemp+1, pclath, cstack
  1117 ;; Tracked objects:
  1118 ;;		On entry : 0/0
  1119 ;;		On exit  : 0/0
  1120 ;;		Unchanged: 0/0
  1121 ;; Data sizes:     COMMON   BANK0   BANK1   BANK3   BANK2
  1122 ;;      Params:         0       0       0       0       0
  1123 ;;      Locals:         2       0       0       0       0
  1124 ;;      Temps:          0       0       0       0       0
  1125 ;;      Totals:         2       0       0       0       0
  1126 ;;Total ram usage:        2 bytes
  1127 ;; Hardware stack levels used: 1
  1128 ;; Hardware stack levels required when called: 2
  1129 ;; This function calls:
  1130 ;;		_TxByte
  1131 ;; This function is called by:
  1132 ;;		_main
  1133 ;; This function uses a non-reentrant model
  1134 ;;
  1135                           
  1136     06BE                     _Matrix_Clear:	
  1137                           ;psect for function _Matrix_Clear
  1138                           
  1139                           
  1140                           ;incstack = 0
  1141                           ; Regs used in _Matrix_Clear: [wreg-fsr0h+status,2+status,0+btemp+1+pclath+cstack]
  1142                           ;Matrix_Clear@slave stored from wreg
  1143     06BE  00F6               	movwf	Matrix_Clear@slave
  1144     06BF                     l927:
  1145                           
  1146                           ;MAX7219_DotMatrix.c: 46: void Matrix_Clear(uint8_t slave);MAX7219_DotMatrix.c: 47: {;MA
      +                          X7219_DotMatrix.c: 48:     for(uint8_t j = 1; j < 9; ++j)
  1147     06BF  01F7               	clrf	Matrix_Clear@j
  1148     06C0  0AF7               	incf	Matrix_Clear@j,f
  1149     06C1                     l933:
  1150                           
  1151                           ;MAX7219_DotMatrix.c: 49:         TxByte(slave, j, 0x00);
  1152     06C1  0877               	movf	Matrix_Clear@j,w
  1153     06C2  00F3               	movwf	TxByte@col
  1154     06C3  01F4               	clrf	TxByte@data
  1155     06C4  0876               	movf	Matrix_Clear@slave,w
  1156     06C5  120A  118A  26D5  120A  118A  	fcall	_TxByte
  1157     06CA                     l935:
  1158     06CA  3001               	movlw	1
  1159     06CB  00FF               	movwf	btemp+1
  1160     06CC  087F               	movf	btemp+1,w
  1161     06CD  07F7               	addwf	Matrix_Clear@j,f
  1162     06CE                     l937:
  1163     06CE  3009               	movlw	9
  1164     06CF  0277               	subwf	Matrix_Clear@j,w
  1165     06D0  1C03               	skipc
  1166     06D1  2ED3               	goto	u181
  1167     06D2  2ED4               	goto	u180
  1168     06D3                     u181:
  1169     06D3  2EC1               	goto	l933
  1170     06D4                     u180:
  1171     06D4                     l113:
  1172     06D4  0008               	return
  1173     06D5                     __end_of_Matrix_Clear:
  1174                           
  1175                           	psect	text6
  1176     06D5                     __ptext6:	
  1177 ;; *************** function _TxByte *****************
  1178 ;; Defined at:
  1179 ;;		line 6 in file "MAX7219_DotMatrix.c"
  1180 ;; Parameters:    Size  Location     Type
  1181 ;;  slave           1    wreg     unsigned char 
  1182 ;;  col             1    3[COMMON] unsigned char 
  1183 ;;  data            1    4[COMMON] unsigned char 
  1184 ;; Auto vars:     Size  Location     Type
  1185 ;;  slave           1    5[COMMON] unsigned char 
  1186 ;; Return value:  Size  Location     Type
  1187 ;;                  1    wreg      void 
  1188 ;; Registers used:
  1189 ;;		wreg, fsr0l, fsr0h, status,2, status,0, pclath, cstack
  1190 ;; Tracked objects:
  1191 ;;		On entry : 0/0
  1192 ;;		On exit  : 0/0
  1193 ;;		Unchanged: 0/0
  1194 ;; Data sizes:     COMMON   BANK0   BANK1   BANK3   BANK2
  1195 ;;      Params:         2       0       0       0       0
  1196 ;;      Locals:         1       0       0       0       0
  1197 ;;      Temps:          0       0       0       0       0
  1198 ;;      Totals:         3       0       0       0       0
  1199 ;;Total ram usage:        3 bytes
  1200 ;; Hardware stack levels used: 1
  1201 ;; Hardware stack levels required when called: 1
  1202 ;; This function calls:
  1203 ;;		_SPI_Tx_Byte
  1204 ;;		_SS_Disable
  1205 ;;		_SS_Enable
  1206 ;; This function is called by:
  1207 ;;		_Matrix_Init
  1208 ;;		_Matrix_Clear
  1209 ;;		_Matrix_Write_Char
  1210 ;; This function uses a non-reentrant model
  1211 ;;
  1212                           
  1213     06D5                     _TxByte:	
  1214                           ;psect for function _TxByte
  1215                           
  1216                           
  1217                           ;incstack = 0
  1218                           ; Regs used in _TxByte: [wreg-fsr0h+status,2+status,0+pclath+cstack]
  1219                           ;TxByte@slave stored from wreg
  1220     06D5  00F5               	movwf	TxByte@slave
  1221     06D6                     l889:
  1222                           
  1223                           ;MAX7219_DotMatrix.c: 6: static void TxByte(uint8_t slave, uint8_t col, uint8_t data);MA
      +                          X7219_DotMatrix.c: 7: {;MAX7219_DotMatrix.c: 9:     SS_Enable(slave);
  1224     06D6  0875               	movf	TxByte@slave,w
  1225     06D7  120A  118A  2673  120A  118A  	fcall	_SS_Enable
  1226     06DC                     l891:
  1227                           
  1228                           ;MAX7219_DotMatrix.c: 11:     SPI_Tx_Byte(col);
  1229     06DC  0873               	movf	TxByte@col,w
  1230     06DD  120A  118A  265C  120A  118A  	fcall	_SPI_Tx_Byte
  1231     06E2                     l893:
  1232                           
  1233                           ;MAX7219_DotMatrix.c: 12:     SPI_Tx_Byte(data);
  1234     06E2  0874               	movf	TxByte@data,w
  1235     06E3  120A  118A  265C  120A  118A  	fcall	_SPI_Tx_Byte
  1236     06E8                     l895:
  1237                           
  1238                           ;MAX7219_DotMatrix.c: 14:     SS_Disable(slave);
  1239     06E8  0875               	movf	TxByte@slave,w
  1240     06E9  120A  118A  2667  120A  118A  	fcall	_SS_Disable
  1241     06EE                     l103:
  1242     06EE  0008               	return
  1243     06EF                     __end_of_TxByte:
  1244                           
  1245                           	psect	text7
  1246     0673                     __ptext7:	
  1247 ;; *************** function _SS_Enable *****************
  1248 ;; Defined at:
  1249 ;;		line 62 in file "PIC16F877A_SPI.c"
  1250 ;; Parameters:    Size  Location     Type
  1251 ;;  slave           1    wreg     unsigned char 
  1252 ;; Auto vars:     Size  Location     Type
  1253 ;;  slave           1    0[COMMON] unsigned char 
  1254 ;; Return value:  Size  Location     Type
  1255 ;;                  1    wreg      void 
  1256 ;; Registers used:
  1257 ;;		wreg, fsr0l, fsr0h, status,2, status,0
  1258 ;; Tracked objects:
  1259 ;;		On entry : 0/0
  1260 ;;		On exit  : 0/0
  1261 ;;		Unchanged: 0/0
  1262 ;; Data sizes:     COMMON   BANK0   BANK1   BANK3   BANK2
  1263 ;;      Params:         0       0       0       0       0
  1264 ;;      Locals:         1       0       0       0       0
  1265 ;;      Temps:          0       0       0       0       0
  1266 ;;      Totals:         1       0       0       0       0
  1267 ;;Total ram usage:        1 bytes
  1268 ;; Hardware stack levels used: 1
  1269 ;; This function calls:
  1270 ;;		Nothing
  1271 ;; This function is called by:
  1272 ;;		_TxByte
  1273 ;; This function uses a non-reentrant model
  1274 ;;
  1275                           
  1276     0673                     _SS_Enable:	
  1277                           ;psect for function _SS_Enable
  1278                           
  1279                           
  1280                           ;incstack = 0
  1281                           ; Regs used in _SS_Enable: [wreg-fsr0h+status,2+status,0]
  1282                           ;SS_Enable@slave stored from wreg
  1283     0673  00F0               	movwf	SS_Enable@slave
  1284     0674                     l883:
  1285                           
  1286                           ;PIC16F877A_SPI.c: 62: void SS_Enable(uint8_t slave);PIC16F877A_SPI.c: 63: {;PIC16F877A_
      +                          SPI.c: 64:     if(slave < 1)
  1287     0674  0870               	movf	SS_Enable@slave,w
  1288     0675  1D03               	btfss	3,2
  1289     0676  2E78               	goto	u141
  1290     0677  2E79               	goto	u140
  1291     0678                     u141:
  1292     0678  2E7A               	goto	l887
  1293     0679                     u140:
  1294     0679  2E82               	goto	l62
  1295     067A                     l887:
  1296                           
  1297                           ;PIC16F877A_SPI.c: 66:     PORTD = ~SS_pin[slave - 1];
  1298     067A  0870               	movf	SS_Enable@slave,w
  1299     067B  3E51               	addlw	(low ((_SS_pin| 0+255)))& (0+255)
  1300     067C  0084               	movwf	4
  1301     067D  1383               	bcf	3,7	;select IRP bank0
  1302     067E  0900               	comf	0,w
  1303     067F  1283               	bcf	3,5	;RP0=0, select bank0
  1304     0680  1303               	bcf	3,6	;RP1=0, select bank0
  1305     0681  0088               	movwf	8	;volatile
  1306     0682                     l62:
  1307     0682  0008               	return
  1308     0683                     __end_of_SS_Enable:
  1309                           
  1310                           	psect	text8
  1311     0667                     __ptext8:	
  1312 ;; *************** function _SS_Disable *****************
  1313 ;; Defined at:
  1314 ;;		line 70 in file "PIC16F877A_SPI.c"
  1315 ;; Parameters:    Size  Location     Type
  1316 ;;  slave           1    wreg     unsigned char 
  1317 ;; Auto vars:     Size  Location     Type
  1318 ;;  slave           1    0[COMMON] unsigned char 
  1319 ;; Return value:  Size  Location     Type
  1320 ;;                  1    wreg      void 
  1321 ;; Registers used:
  1322 ;;		wreg, status,2, status,0
  1323 ;; Tracked objects:
  1324 ;;		On entry : 0/0
  1325 ;;		On exit  : 0/0
  1326 ;;		Unchanged: 0/0
  1327 ;; Data sizes:     COMMON   BANK0   BANK1   BANK3   BANK2
  1328 ;;      Params:         0       0       0       0       0
  1329 ;;      Locals:         1       0       0       0       0
  1330 ;;      Temps:          0       0       0       0       0
  1331 ;;      Totals:         1       0       0       0       0
  1332 ;;Total ram usage:        1 bytes
  1333 ;; Hardware stack levels used: 1
  1334 ;; This function calls:
  1335 ;;		Nothing
  1336 ;; This function is called by:
  1337 ;;		_TxByte
  1338 ;; This function uses a non-reentrant model
  1339 ;;
  1340                           
  1341     0667                     _SS_Disable:	
  1342                           ;psect for function _SS_Disable
  1343                           
  1344                           
  1345                           ;incstack = 0
  1346                           ; Regs used in _SS_Disable: [wreg+status,2+status,0]
  1347                           ;SS_Disable@slave stored from wreg
  1348     0667  00F0               	movwf	SS_Disable@slave
  1349     0668                     l741:
  1350                           
  1351                           ;PIC16F877A_SPI.c: 70: void SS_Disable(uint8_t slave);PIC16F877A_SPI.c: 71: {;PIC16F877A
      +                          _SPI.c: 72:     if(slave < 1)
  1352     0668  0870               	movf	SS_Disable@slave,w
  1353     0669  1D03               	btfss	3,2
  1354     066A  2E6C               	goto	u21
  1355     066B  2E6D               	goto	u20
  1356     066C                     u21:
  1357     066C  2E6E               	goto	l745
  1358     066D                     u20:
  1359     066D  2E72               	goto	l66
  1360     066E                     l745:
  1361                           
  1362                           ;PIC16F877A_SPI.c: 74:     PORTD = 0xFF;
  1363     066E  30FF               	movlw	255
  1364     066F  1283               	bcf	3,5	;RP0=0, select bank0
  1365     0670  1303               	bcf	3,6	;RP1=0, select bank0
  1366     0671  0088               	movwf	8	;volatile
  1367     0672                     l66:
  1368     0672  0008               	return
  1369     0673                     __end_of_SS_Disable:
  1370                           
  1371                           	psect	text9
  1372     065C                     __ptext9:	
  1373 ;; *************** function _SPI_Tx_Byte *****************
  1374 ;; Defined at:
  1375 ;;		line 78 in file "PIC16F877A_SPI.c"
  1376 ;; Parameters:    Size  Location     Type
  1377 ;;  data            1    wreg     unsigned char 
  1378 ;; Auto vars:     Size  Location     Type
  1379 ;;  data            1    0[COMMON] unsigned char 
  1380 ;; Return value:  Size  Location     Type
  1381 ;;                  1    wreg      void 
  1382 ;; Registers used:
  1383 ;;		wreg
  1384 ;; Tracked objects:
  1385 ;;		On entry : 0/0
  1386 ;;		On exit  : 0/0
  1387 ;;		Unchanged: 0/0
  1388 ;; Data sizes:     COMMON   BANK0   BANK1   BANK3   BANK2
  1389 ;;      Params:         0       0       0       0       0
  1390 ;;      Locals:         1       0       0       0       0
  1391 ;;      Temps:          0       0       0       0       0
  1392 ;;      Totals:         1       0       0       0       0
  1393 ;;Total ram usage:        1 bytes
  1394 ;; Hardware stack levels used: 1
  1395 ;; This function calls:
  1396 ;;		Nothing
  1397 ;; This function is called by:
  1398 ;;		_TxByte
  1399 ;;		_SPI_Tx_String
  1400 ;; This function uses a non-reentrant model
  1401 ;;
  1402                           
  1403     065C                     _SPI_Tx_Byte:	
  1404                           ;psect for function _SPI_Tx_Byte
  1405                           
  1406                           
  1407                           ;incstack = 0
  1408                           ; Regs used in _SPI_Tx_Byte: [wreg]
  1409                           ;SPI_Tx_Byte@data stored from wreg
  1410     065C  00F0               	movwf	SPI_Tx_Byte@data
  1411     065D                     l747:
  1412                           
  1413                           ;PIC16F877A_SPI.c: 78: void SPI_Tx_Byte(uint8_t data);PIC16F877A_SPI.c: 79: {;PIC16F877A
      +                          _SPI.c: 80:     SSPBUF = data;
  1414     065D  0870               	movf	SPI_Tx_Byte@data,w
  1415     065E  1283               	bcf	3,5	;RP0=0, select bank0
  1416     065F  1303               	bcf	3,6	;RP1=0, select bank0
  1417     0660  0093               	movwf	19	;volatile
  1418     0661                     l749:
  1419                           
  1420                           ;PIC16F877A_SPI.c: 82:     if(WCOL)
  1421     0661  1F94               	btfss	20,7	;volatile
  1422     0662  2E64               	goto	u31
  1423     0663  2E65               	goto	u30
  1424     0664                     u31:
  1425     0664  2E66               	goto	l70
  1426     0665                     u30:
  1427     0665                     l751:
  1428                           
  1429                           ;PIC16F877A_SPI.c: 83:         WCOL = 0;
  1430     0665  1394               	bcf	20,7	;volatile
  1431     0666                     l70:
  1432     0666  0008               	return
  1433     0667                     __end_of_SPI_Tx_Byte:
  1434     007E                     btemp	set	126	;btemp
  1435     007E                     wtemp0	set	126
  1436                           
  1437                           	psect	idloc
  1438                           
  1439                           ;Config register IDLOC0 @ 0x2000
  1440                           ;	unspecified, using default values
  1441     2000                     	org	8192
  1442     2000  3FFF               	dw	16383
  1443                           
  1444                           ;Config register IDLOC1 @ 0x2001
  1445                           ;	unspecified, using default values
  1446     2001                     	org	8193
  1447     2001  3FFF               	dw	16383
  1448                           
  1449                           ;Config register IDLOC2 @ 0x2002
  1450                           ;	unspecified, using default values
  1451     2002                     	org	8194
  1452     2002  3FFF               	dw	16383
  1453                           
  1454                           ;Config register IDLOC3 @ 0x2003
  1455                           ;	unspecified, using default values
  1456     2003                     	org	8195
  1457     2003  3FFF               	dw	16383
  1458                           
  1459                           	psect	config
  1460                           
  1461                           ;Config register CONFIG @ 0x2007
  1462                           ;	Oscillator Selection bits
  1463                           ;	FOSC = HS, HS oscillator
  1464                           ;	Watchdog Timer Enable bit
  1465                           ;	WDTE = OFF, WDT disabled
  1466                           ;	Power-up Timer Enable bit
  1467                           ;	PWRTE = OFF, PWRT disabled
  1468                           ;	Brown-out Reset Enable bit
  1469                           ;	BOREN = ON, BOR enabled
  1470                           ;	Low-Voltage (Single-Supply) In-Circuit Serial Programming Enable bit
  1471                           ;	LVP = ON, RB3/PGM pin has PGM function; low-voltage programming enabled
  1472                           ;	Data EEPROM Memory Code Protection bit
  1473                           ;	CPD = OFF, Data EEPROM code protection off
  1474                           ;	Flash Program Memory Write Enable bits
  1475                           ;	WRT = OFF, Write protection off; all program memory may be written to by EECON control
  1476                           ;	In-Circuit Debugger Mode bit
  1477                           ;	DEBUG = 0x1, unprogrammed default
  1478                           ;	Flash Program Memory Code Protection bit
  1479                           ;	CP = OFF, Code protection off
  1480     2007                     	org	8199
  1481     2007  3FFA               	dw	16378

Data Sizes:
    Strings     0
    Constant    0
    Data        58
    BSS         1
    Persistent  0
    Stack       0

Auto Spaces:
    Space          Size  Autos    Used
    COMMON           14     14      14
    BANK0            80      3      62
    BANK1            80      0       0
    BANK3            96      0       0
    BANK2            96      0       0

Pointer List with Targets:

    None.

Critical Paths under _main in COMMON

    _main->_Matrix_Write_Char
    _Matrix_Write_Char->_TxByte
    _Matrix_Init->_TxByte
    _Matrix_Clear->_TxByte
    _TxByte->___bmul

Critical Paths under _main in BANK0

    None.

Critical Paths under _main in BANK1

    None.

Critical Paths under _main in BANK3

    None.

Critical Paths under _main in BANK2

    None.

Call Graph Tables:

 ---------------------------------------------------------------------------------
 (Depth) Function   	        Calls       Base Space   Used Autos Params    Refs
 ---------------------------------------------------------------------------------
 (0) _main                                                 4     4      0    5323
                                             13 COMMON     1     1      0
                                              0 BANK0      3     3      0
                       _Matrix_Clear
                        _Matrix_Init
                  _Matrix_Write_Char
 ---------------------------------------------------------------------------------
 (1) _Matrix_Write_Char                                    7     6      1    1970
                                              6 COMMON     7     6      1
                             _TxByte
                             ___bmul
 ---------------------------------------------------------------------------------
 (2) ___bmul                                               3     2      1     118
                                              0 COMMON     3     2      1
 ---------------------------------------------------------------------------------
 (1) _Matrix_Init                                          1     1      0    1686
                                              6 COMMON     1     1      0
                    _SPI_Master_Init
                             _TxByte
 ---------------------------------------------------------------------------------
 (2) _SPI_Master_Init                                      0     0      0       0
 ---------------------------------------------------------------------------------
 (1) _Matrix_Clear                                         2     2      0    1620
                                              6 COMMON     2     2      0
                             _TxByte
 ---------------------------------------------------------------------------------
 (2) _TxByte                                               3     1      2    1530
                                              3 COMMON     3     1      2
                        _SPI_Tx_Byte
                         _SS_Disable
                          _SS_Enable
                             ___bmul (ARG)
 ---------------------------------------------------------------------------------
 (3) _SS_Enable                                            1     1      0      44
                                              0 COMMON     1     1      0
 ---------------------------------------------------------------------------------
 (3) _SS_Disable                                           1     1      0      15
                                              0 COMMON     1     1      0
 ---------------------------------------------------------------------------------
 (3) _SPI_Tx_Byte                                          1     1      0      15
                                              0 COMMON     1     1      0
 ---------------------------------------------------------------------------------
 Estimated maximum stack depth 3
 ---------------------------------------------------------------------------------

 Call Graph Graphs:

 _main (ROOT)
   _Matrix_Clear
     _TxByte
       _SPI_Tx_Byte
       _SS_Disable
       _SS_Enable
       ___bmul (ARG)
   _Matrix_Init
     _SPI_Master_Init
     _TxByte
   _Matrix_Write_Char
     _TxByte
     ___bmul

 Address spaces:
Name               Size   Autos  Total    Cost      Usage
BANK3               60      0       0       9        0.0%
BITBANK3            60      0       0       8        0.0%
SFR3                 0      0       0       4        0.0%
BITSFR3              0      0       0       4        0.0%
BANK2               60      0       0      11        0.0%
BITBANK2            60      0       0      10        0.0%
SFR2                 0      0       0       5        0.0%
BITSFR2              0      0       0       5        0.0%
BANK1               50      0       0       7        0.0%
BITBANK1            50      0       0       6        0.0%
SFR1                 0      0       0       2        0.0%
BITSFR1              0      0       0       2        0.0%
BANK0               50      3      3E       5       77.5%
BITBANK0            50      0       0       4        0.0%
SFR0                 0      0       0       1        0.0%
BITSFR0              0      0       0       1        0.0%
COMMON               E      E       E       1      100.0%
BITCOMMON            E      0       0       0        0.0%
CODE                 0      0       0       0        0.0%
DATA                 0      0      4C      12        0.0%
ABS                  0      0      4C       3        0.0%
NULL                 0      0       0       0        0.0%
STACK                0      0       0       2        0.0%
EEDATA             100      0       0       0        0.0%


Microchip Technology PIC Macro Assembler V2.41 build 20230208172133 
Symbol Table                                                                                   Mon Aug 07 07:54:37 2023

          _SPI_Master_Init 0683                          pc 0002             ___bmul@product 0071  
              _SPI_Tx_Byte 065C                         l70 0666                         l62 0682  
                       l55 0695                         l66 0672                         u20 066D  
                       u21 066C                         u30 0665                         u31 0664  
           SS_Enable@slave 0070                         fsr 0004                        l103 06EE  
                      l113 06D4                        l108 079C                        l117 07EC  
                      l255 06BD                        l741 0668                        l901 06AF  
                      l751 0665                        l903 06B3                        l745 066E  
                      l761 068B                        l753 0683                        l921 0762  
                      l913 075B                        l905 06B5                        l747 065D  
                      l771 0692                        l763 068C                        l755 0686  
                      l923 0792                        l915 0760                        l907 06B7  
                      l749 0661                        l933 06C1                        l773 0693  
                      l765 068D                        l757 0689                        l925 0796  
                      l909 06BC                        l941 079E                        l935 06CA  
                      l927 06BF                        l775 0694                        l767 068E  
                      l759 068A                        l951 07CB                        _CKE 04A6  
                      l937 06CE                        l769 0691                        l953 07CF  
                      l945 07A7                        l961 06F5                        l883 0674  
                      l891 06DC                        l955 07E3                        l947 07B0  
                      l939 079E                        l971 070E                        l963 06FB  
                      l893 06E2                        l949 07B3                        l965 0703  
                      l957 06EF                        l887 067A                        l895 06E8  
                      l967 0707                        l959 06F0                        l889 06D6  
                      l897 06AA                        l969 070D                        _CKP 00A4  
                      l899 06AB                        _GIE 005F                        u200 07E3  
                      u201 07E2                        u210 070D                        u211 070C  
                      u140 0679                        u141 0678                        u205 07DF  
                      u150 06AF                        u151 06AE                        u160 06BC  
                      u161 06BB                        u170 079C                        u171 079B  
                      u227 0716                        u180 06D4                        u181 06D3  
                      u190 07A6                        u191 07A5                        _SMP 04A7  
                      fsr0 0004                        indf 0000                       _PEIE 005E  
                     _WCOL 00A7                 _SS_Disable 0667                       _main 06EF  
                     btemp 007E                       start 0000          ___bmul@multiplier 0072  
          SS_Disable@slave 0070                      ?_main 0070                      _PCFG0 04F8  
                    _PCFG1 04F9                      _PCFG2 04FA                      _PCFG3 04FB  
        Matrix_Clear@slave 0076                      _PORTD 0008                      _SSPM0 00A0  
                    _SSPM1 00A1                      _SSPM2 00A2                      _SSPM3 00A3  
                    _TRISD 0088              ??_Matrix_Init 0076                      _SSPIE 0463  
                    _SSPEN 00A5                      _SSPIF 0063          _Matrix_Write_Char 079D  
                    main@c 007D         ?_Matrix_Write_Char 0076                      pclath 000A  
                    status 0003                      wtemp0 007E              ?_Matrix_Clear 0070  
  __end_of_SPI_Master_Init 0696        ??_Matrix_Write_Char 0077            __initialization 07ED  
             __end_of_main 0721                     ??_main 005A  __end_of_Matrix_Write_Char 07ED  
      __end_of_Matrix_Init 079D                ?_SS_Disable 0070             ??_Matrix_Clear 0076  
                   _TRISA5 042D                     _TRISC3 043B                     _TRISC4 043C  
                   _TRISC5 043D                     _SSPBUF 0013                 TxByte@data 0074  
                   _SS_pin 0052                     _TxByte 06D5       Matrix_Write_Char@col 007C  
                   ___bmul 06A9          __end_of_SS_Enable 0683    __end_of__initialization 07FC  
         ?_SPI_Master_Init 0070        ___bmul@multiplicand 0070             __pcstackCOMMON 0070  
             __pidataBANK0 0721               ?_SPI_Tx_Byte 0070                _Matrix_Init 075B  
               __pbssBANK0 005D               Matrix_Init@i 0076                 __pmaintext 06EF  
                  ?_TxByte 0073                    ?___bmul 0070       __end_of_Matrix_Clear 06D5  
          SPI_Tx_Byte@data 0070                TxByte@slave 0075      Matrix_Write_Char@data 0076  
    Matrix_Write_Char@font 007A                    __ptext1 079D                    __ptext2 06A9  
                  __ptext3 075B                    __ptext4 0683                    __ptext5 06BE  
                  __ptext6 06D5                    __ptext7 0673                    __ptext8 0667  
                  __ptext9 065C       end_of_initialization 07FC               ??_SS_Disable 0070  
       __end_of_SS_Disable 0673                  _SS_Enable 0673             __end_of_TxByte 06EF  
           __end_of___bmul 06BE               ?_Matrix_Init 0070        start_initialization 07ED  
               ?_SS_Enable 0070               _Matrix_Clear 06BE                  TxByte@col 0073  
                 ??_TxByte 0075                   ??___bmul 0071                 init_fetch0 0696  
              __pdataBANK0 0020              Matrix_Clear@j 0077                  ___latbits 0002  
            __pcstackBANK0 005A                   _FONT_7x5 0020                ??_SS_Enable 0070  
        ??_SPI_Master_Init 0070              ??_SPI_Tx_Byte 0070     Matrix_Write_Char@slave 007B  
                 _rcv_byte 005D        __end_of_SPI_Tx_Byte 0667                   init_ram0 069A  
